; ModuleID = '5/399.c'
source_filename = "5/399.c"
target datalayout = "e-m:e-p270:32:32-p271:32:32-p272:64:64-i64:64-f80:128-n8:16:32:64-S128"
target triple = "x86_64-pc-linux-gnu"

@.str = private unnamed_addr constant [4 x i8] c"%lf\00", align 1
@.str.1 = private unnamed_addr constant [6 x i8] c"%s %s\00", align 1
@.str.2 = private unnamed_addr constant [7 x i8] c"error\0A\00", align 1
@.str.3 = private unnamed_addr constant [5 x i8] c"yes\0A\00", align 1
@.str.4 = private unnamed_addr constant [4 x i8] c"no\0A\00", align 1

; Function Attrs: noinline nounwind uwtable
define dso_local i32 @main() #0 {
  %1 = alloca i32, align 4
  %2 = alloca double, align 8
  %3 = alloca [100 x i8], align 16
  %4 = alloca [100 x i8], align 16
  %5 = alloca i32, align 4
  %6 = alloca i32, align 4
  %7 = alloca i32, align 4
  %8 = alloca i32, align 4
  store i32 0, i32* %1, align 4
  %9 = call i32 (i8*, ...) @__isoc99_scanf(i8* getelementptr inbounds ([4 x i8], [4 x i8]* @.str, i64 0, i64 0), double* %2)
  %10 = getelementptr inbounds [100 x i8], [100 x i8]* %3, i64 0, i64 0
  %11 = getelementptr inbounds [100 x i8], [100 x i8]* %4, i64 0, i64 0
  %12 = call i32 (i8*, ...) @__isoc99_scanf(i8* getelementptr inbounds ([6 x i8], [6 x i8]* @.str.1, i64 0, i64 0), i8* %10, i8* %11)
  store i32 0, i32* %5, align 4
  store i32 0, i32* %6, align 4
  store i32 0, i32* %8, align 4
  store i32 0, i32* %7, align 4
  br label %13

13:                                               ; preds = %23, %0
  %14 = load i32, i32* %7, align 4
  %15 = sext i32 %14 to i64
  %16 = getelementptr inbounds [100 x i8], [100 x i8]* %3, i64 0, i64 %15
  %17 = load i8, i8* %16, align 1
  %18 = sext i8 %17 to i32
  %19 = icmp ne i32 %18, 0
  br i1 %19, label %20, label %26

20:                                               ; preds = %13
  %21 = load i32, i32* %6, align 4
  %22 = add nsw i32 %21, 1
  store i32 %22, i32* %6, align 4
  br label %23

23:                                               ; preds = %20
  %24 = load i32, i32* %7, align 4
  %25 = add nsw i32 %24, 1
  store i32 %25, i32* %7, align 4
  br label %13

26:                                               ; preds = %13
  store i32 0, i32* %7, align 4
  br label %27

27:                                               ; preds = %37, %26
  %28 = load i32, i32* %7, align 4
  %29 = sext i32 %28 to i64
  %30 = getelementptr inbounds [100 x i8], [100 x i8]* %4, i64 0, i64 %29
  %31 = load i8, i8* %30, align 1
  %32 = sext i8 %31 to i32
  %33 = icmp ne i32 %32, 0
  br i1 %33, label %34, label %40

34:                                               ; preds = %27
  %35 = load i32, i32* %8, align 4
  %36 = add nsw i32 %35, 1
  store i32 %36, i32* %8, align 4
  br label %37

37:                                               ; preds = %34
  %38 = load i32, i32* %7, align 4
  %39 = add nsw i32 %38, 1
  store i32 %39, i32* %7, align 4
  br label %27

40:                                               ; preds = %27
  %41 = load i32, i32* %8, align 4
  %42 = load i32, i32* %6, align 4
  %43 = icmp ne i32 %41, %42
  br i1 %43, label %44, label %46

44:                                               ; preds = %40
  %45 = call i32 (i8*, ...) @printf(i8* getelementptr inbounds ([7 x i8], [7 x i8]* @.str.2, i64 0, i64 0))
  store i32 0, i32* %1, align 4
  br label %148

46:                                               ; preds = %40
  store i32 0, i32* %7, align 4
  br label %47

47:                                               ; preds = %132, %46
  %48 = load i32, i32* %7, align 4
  %49 = sext i32 %48 to i64
  %50 = getelementptr inbounds [100 x i8], [100 x i8]* %3, i64 0, i64 %49
  %51 = load i8, i8* %50, align 1
  %52 = sext i8 %51 to i32
  %53 = icmp ne i32 %52, 0
  br i1 %53, label %54, label %135

54:                                               ; preds = %47
  %55 = load i32, i32* %7, align 4
  %56 = sext i32 %55 to i64
  %57 = getelementptr inbounds [100 x i8], [100 x i8]* %3, i64 0, i64 %56
  %58 = load i8, i8* %57, align 1
  %59 = sext i8 %58 to i32
  %60 = icmp ne i32 %59, 65
  br i1 %60, label %61, label %84

61:                                               ; preds = %54
  %62 = load i32, i32* %7, align 4
  %63 = sext i32 %62 to i64
  %64 = getelementptr inbounds [100 x i8], [100 x i8]* %3, i64 0, i64 %63
  %65 = load i8, i8* %64, align 1
  %66 = sext i8 %65 to i32
  %67 = icmp ne i32 %66, 84
  br i1 %67, label %68, label %84

68:                                               ; preds = %61
  %69 = load i32, i32* %7, align 4
  %70 = sext i32 %69 to i64
  %71 = getelementptr inbounds [100 x i8], [100 x i8]* %3, i64 0, i64 %70
  %72 = load i8, i8* %71, align 1
  %73 = sext i8 %72 to i32
  %74 = icmp ne i32 %73, 67
  br i1 %74, label %75, label %84

75:                                               ; preds = %68
  %76 = load i32, i32* %7, align 4
  %77 = sext i32 %76 to i64
  %78 = getelementptr inbounds [100 x i8], [100 x i8]* %3, i64 0, i64 %77
  %79 = load i8, i8* %78, align 1
  %80 = sext i8 %79 to i32
  %81 = icmp ne i32 %80, 71
  br i1 %81, label %82, label %84

82:                                               ; preds = %75
  %83 = call i32 (i8*, ...) @printf(i8* getelementptr inbounds ([7 x i8], [7 x i8]* @.str.2, i64 0, i64 0))
  store i32 0, i32* %1, align 4
  br label %148

84:                                               ; preds = %75, %68, %61, %54
  %85 = load i32, i32* %7, align 4
  %86 = sext i32 %85 to i64
  %87 = getelementptr inbounds [100 x i8], [100 x i8]* %4, i64 0, i64 %86
  %88 = load i8, i8* %87, align 1
  %89 = sext i8 %88 to i32
  %90 = icmp ne i32 %89, 65
  br i1 %90, label %91, label %114

91:                                               ; preds = %84
  %92 = load i32, i32* %7, align 4
  %93 = sext i32 %92 to i64
  %94 = getelementptr inbounds [100 x i8], [100 x i8]* %4, i64 0, i64 %93
  %95 = load i8, i8* %94, align 1
  %96 = sext i8 %95 to i32
  %97 = icmp ne i32 %96, 84
  br i1 %97, label %98, label %114

98:                                               ; preds = %91
  %99 = load i32, i32* %7, align 4
  %100 = sext i32 %99 to i64
  %101 = getelementptr inbounds [100 x i8], [100 x i8]* %4, i64 0, i64 %100
  %102 = load i8, i8* %101, align 1
  %103 = sext i8 %102 to i32
  %104 = icmp ne i32 %103, 67
  br i1 %104, label %105, label %114

105:                                              ; preds = %98
  %106 = load i32, i32* %7, align 4
  %107 = sext i32 %106 to i64
  %108 = getelementptr inbounds [100 x i8], [100 x i8]* %4, i64 0, i64 %107
  %109 = load i8, i8* %108, align 1
  %110 = sext i8 %109 to i32
  %111 = icmp ne i32 %110, 71
  br i1 %111, label %112, label %114

112:                                              ; preds = %105
  %113 = call i32 (i8*, ...) @printf(i8* getelementptr inbounds ([7 x i8], [7 x i8]* @.str.2, i64 0, i64 0))
  store i32 0, i32* %1, align 4
  br label %148

114:                                              ; preds = %105, %98, %91, %84
  %115 = load i32, i32* %7, align 4
  %116 = sext i32 %115 to i64
  %117 = getelementptr inbounds [100 x i8], [100 x i8]* %3, i64 0, i64 %116
  %118 = load i8, i8* %117, align 1
  %119 = sext i8 %118 to i32
  %120 = load i32, i32* %7, align 4
  %121 = sext i32 %120 to i64
  %122 = getelementptr inbounds [100 x i8], [100 x i8]* %4, i64 0, i64 %121
  %123 = load i8, i8* %122, align 1
  %124 = sext i8 %123 to i32
  %125 = icmp eq i32 %119, %124
  br i1 %125, label %126, label %129

126:                                              ; preds = %114
  %127 = load i32, i32* %5, align 4
  %128 = add nsw i32 %127, 1
  store i32 %128, i32* %5, align 4
  br label %129

129:                                              ; preds = %126, %114
  br label %130

130:                                              ; preds = %129
  br label %131

131:                                              ; preds = %130
  br label %132

132:                                              ; preds = %131
  %133 = load i32, i32* %7, align 4
  %134 = add nsw i32 %133, 1
  store i32 %134, i32* %7, align 4
  br label %47

135:                                              ; preds = %47
  %136 = load i32, i32* %5, align 4
  %137 = sitofp i32 %136 to double
  %138 = fmul double %137, 1.000000e+00
  %139 = load i32, i32* %6, align 4
  %140 = sitofp i32 %139 to double
  %141 = fdiv double %138, %140
  %142 = load double, double* %2, align 8
  %143 = fcmp oge double %141, %142
  br i1 %143, label %144, label %146

144:                                              ; preds = %135
  %145 = call i32 (i8*, ...) @printf(i8* getelementptr inbounds ([5 x i8], [5 x i8]* @.str.3, i64 0, i64 0))
  store i32 0, i32* %1, align 4
  br label %148

146:                                              ; preds = %135
  %147 = call i32 (i8*, ...) @printf(i8* getelementptr inbounds ([4 x i8], [4 x i8]* @.str.4, i64 0, i64 0))
  store i32 0, i32* %1, align 4
  br label %148

148:                                              ; preds = %146, %144, %112, %82, %44
  %149 = load i32, i32* %1, align 4
  ret i32 %149
}

declare dso_local i32 @__isoc99_scanf(i8*, ...) #1

declare dso_local i32 @printf(i8*, ...) #1


!llvm.module.flags = !{!0}
!llvm.ident = !{!1}

!0 = !{i32 1, !"wchar_size", i32 4}
!1 = !{!"clang version 10.0.0-4ubuntu1 "}
