; ModuleID = 'source-C-CXX/4/399.c'
source_filename = "source-C-CXX/4/399.c"
target datalayout = "e-m:e-p270:32:32-p271:32:32-p272:64:64-i64:64-f80:128-n8:16:32:64-S128"
target triple = "x86_64-pc-linux-gnu"

@.str = private unnamed_addr constant [4 x i8] c"%lf\00", align 1
@.str.1 = private unnamed_addr constant [6 x i8] c"%s %s\00", align 1
@str = private unnamed_addr constant [3 x i8] c"no\00", align 1
@str.5 = private unnamed_addr constant [4 x i8] c"yes\00", align 1
@str.8 = private unnamed_addr constant [6 x i8] c"error\00", align 1

; Function Attrs: nofree nounwind sspstrong uwtable
define dso_local i32 @main() local_unnamed_addr #0 {
  %1 = alloca double, align 8
  %2 = alloca [100 x i8], align 16
  %3 = alloca [100 x i8], align 16
  %4 = bitcast double* %1 to i8*
  call void @llvm.lifetime.start.p0i8(i64 8, i8* nonnull %4) #4
  %5 = call i32 (i8*, ...) @__isoc99_scanf(i8* getelementptr inbounds ([4 x i8], [4 x i8]* @.str, i64 0, i64 0), double* nonnull %1)
  %6 = getelementptr inbounds [100 x i8], [100 x i8]* %2, i64 0, i64 0
  call void @llvm.lifetime.start.p0i8(i64 100, i8* nonnull %6) #4
  %7 = getelementptr inbounds [100 x i8], [100 x i8]* %3, i64 0, i64 0
  call void @llvm.lifetime.start.p0i8(i64 100, i8* nonnull %7) #4
  %8 = call i32 (i8*, ...) @__isoc99_scanf(i8* getelementptr inbounds ([6 x i8], [6 x i8]* @.str.1, i64 0, i64 0), i8* nonnull %6, i8* nonnull %7)
  %9 = load i8, i8* %6, align 16, !tbaa !5
  %10 = icmp eq i8 %9, 0
  br i1 %10, label %11, label %15

11:                                               ; preds = %15, %0
  %12 = phi i32 [ 0, %0 ], [ %18, %15 ]
  %13 = load i8, i8* %7, align 16, !tbaa !5
  %14 = icmp eq i8 %13, 0
  br i1 %14, label %31, label %23

15:                                               ; preds = %0, %15
  %16 = phi i64 [ %19, %15 ], [ 0, %0 ]
  %17 = phi i32 [ %18, %15 ], [ 0, %0 ]
  %18 = add nuw nsw i32 %17, 1
  %19 = add nuw nsw i64 %16, 1
  %20 = getelementptr inbounds [100 x i8], [100 x i8]* %2, i64 0, i64 %19
  %21 = load i8, i8* %20, align 1, !tbaa !5
  %22 = icmp eq i8 %21, 0
  br i1 %22, label %11, label %15, !llvm.loop !8

23:                                               ; preds = %11, %23
  %24 = phi i64 [ %27, %23 ], [ 0, %11 ]
  %25 = phi i32 [ %26, %23 ], [ 0, %11 ]
  %26 = add nuw nsw i32 %25, 1
  %27 = add nuw nsw i64 %24, 1
  %28 = getelementptr inbounds [100 x i8], [100 x i8]* %3, i64 0, i64 %27
  %29 = load i8, i8* %28, align 1, !tbaa !5
  %30 = icmp eq i8 %29, 0
  br i1 %30, label %31, label %23, !llvm.loop !10

31:                                               ; preds = %23, %11
  %32 = phi i32 [ 0, %11 ], [ %26, %23 ]
  %33 = icmp eq i32 %32, %12
  br i1 %33, label %34, label %55

34:                                               ; preds = %31, %41
  %35 = phi i8 [ %47, %41 ], [ %9, %31 ]
  %36 = phi i64 [ %45, %41 ], [ 0, %31 ]
  %37 = phi i32 [ %44, %41 ], [ 0, %31 ]
  switch i8 %35, label %55 [
    i8 0, label %48
    i8 65, label %38
    i8 84, label %38
    i8 67, label %38
    i8 71, label %38
  ]

38:                                               ; preds = %34, %34, %34, %34
  %39 = getelementptr inbounds [100 x i8], [100 x i8]* %3, i64 0, i64 %36
  %40 = load i8, i8* %39, align 1, !tbaa !5
  switch i8 %40, label %55 [
    i8 65, label %41
    i8 84, label %41
    i8 67, label %41
    i8 71, label %41
  ]

41:                                               ; preds = %38, %38, %38, %38
  %42 = icmp eq i8 %35, %40
  %43 = zext i1 %42 to i32
  %44 = add nuw nsw i32 %37, %43
  %45 = add nuw i64 %36, 1
  %46 = getelementptr inbounds [100 x i8], [100 x i8]* %2, i64 0, i64 %45
  %47 = load i8, i8* %46, align 1, !tbaa !5
  br label %34, !llvm.loop !11

48:                                               ; preds = %34
  %49 = sitofp i32 %37 to double
  %50 = sitofp i32 %12 to double
  %51 = fdiv double %49, %50
  %52 = load double, double* %1, align 8, !tbaa !12
  %53 = fcmp ult double %51, %52
  %54 = select i1 %53, i8* getelementptr inbounds ([3 x i8], [3 x i8]* @str, i64 0, i64 0), i8* getelementptr inbounds ([4 x i8], [4 x i8]* @str.5, i64 0, i64 0)
  br label %55

55:                                               ; preds = %38, %34, %48, %31
  %56 = phi i8* [ getelementptr inbounds ([6 x i8], [6 x i8]* @str.8, i64 0, i64 0), %31 ], [ %54, %48 ], [ getelementptr inbounds ([6 x i8], [6 x i8]* @str.8, i64 0, i64 0), %34 ], [ getelementptr inbounds ([6 x i8], [6 x i8]* @str.8, i64 0, i64 0), %38 ]
  %57 = call i32 @puts(i8* nonnull dereferenceable(1) %56)
  call void @llvm.lifetime.end.p0i8(i64 100, i8* nonnull %7) #4
  call void @llvm.lifetime.end.p0i8(i64 100, i8* nonnull %6) #4
  call void @llvm.lifetime.end.p0i8(i64 8, i8* nonnull %4) #4
  ret i32 0
}

; Function Attrs: argmemonly mustprogress nofree nosync nounwind willreturn
declare void @llvm.lifetime.start.p0i8(i64 immarg, i8* nocapture) #1

; Function Attrs: nofree nounwind
declare noundef i32 @__isoc99_scanf(i8* nocapture noundef readonly, ...) local_unnamed_addr #2

; Function Attrs: argmemonly mustprogress nofree nosync nounwind willreturn
declare void @llvm.lifetime.end.p0i8(i64 immarg, i8* nocapture) #1

; Function Attrs: nofree nounwind
declare noundef i32 @puts(i8* nocapture noundef readonly) local_unnamed_addr #3


!llvm.module.flags = !{!0, !1, !2, !3}
!llvm.ident = !{!4}

!0 = !{i32 1, !"wchar_size", i32 4}
!1 = !{i32 7, !"PIC Level", i32 2}
!2 = !{i32 7, !"PIE Level", i32 2}
!3 = !{i32 7, !"uwtable", i32 1}
!4 = !{!"clang version 13.0.0"}
!5 = !{!6, !6, i64 0}
!6 = !{!"omnipotent char", !7, i64 0}
!7 = !{!"Simple C/C++ TBAA"}
!8 = distinct !{!8, !9}
!9 = !{!"llvm.loop.mustprogress"}
!10 = distinct !{!10, !9}
!11 = distinct !{!11, !9}
!12 = !{!13, !13, i64 0}
!13 = !{!"double", !6, i64 0}
